; Function Attrs: nounwind uwtable
define hidden void @Curl_hsts_loadfiles(ptr noundef %0) local_unnamed_addr #0 {
  %2 = getelementptr inbounds nuw i8, ptr %0, i64 3192
  %3 = load ptr, ptr %2, align 8, !tbaa !122
  %.not = icmp eq ptr %3, null
  br i1 %.not, label %15, label %4

4:                                                ; preds = %1
  %5 = tail call i32 @Curl_share_lock(ptr noundef nonnull %0, i32 noundef 7, i32 noundef 2) #9
  %6 = getelementptr inbounds nuw i8, ptr %0, i64 2680
  br label %7

7:                                                ; preds = %4, %7
  %.011 = phi ptr [ %3, %4 ], [ %12, %7 ]
  %8 = load ptr, ptr %6, align 8, !tbaa !123
  %9 = load ptr, ptr %.011, align 8, !tbaa !124
  %10 = tail call i32 @Curl_hsts_loadfile(ptr nonnull poison, ptr noundef %8, ptr noundef %9)
  %11 = getelementptr inbounds nuw i8, ptr %.011, i64 8
  %12 = load ptr, ptr %11, align 8, !tbaa !126
  %.not10 = icmp eq ptr %12, null
  br i1 %.not10, label %13, label %7, !llvm.loop !127

13:                                               ; preds = %7
  %14 = tail call i32 @Curl_share_unlock(ptr noundef nonnull %0, i32 noundef 7) #9
  br label %15

15:                                               ; preds = %13, %1
  ret void
}